; Function Attrs: nounwind ssp uwtable
define hidden noundef i32 @_sodium_blake2b_init_salt_personal(ptr noundef %0, i8 noundef zeroext %1, ptr noundef readonly captures(address_is_null) %2, ptr noundef readonly captures(address_is_null) %3) local_unnamed_addr #2 {
  %5 = alloca [1 x %struct.blake2b_param_], align 16
  call void @llvm.lifetime.start.p0(i64 64, ptr nonnull %5) #8
  %6 = add i8 %1, -65
  %or.cond = icmp ult i8 %6, -64
  br i1 %or.cond, label %7, label %8

7:                                                ; preds = %4
  tail call void @sodium_misuse() #9
  unreachable

8:                                                ; preds = %4
  store i8 %1, ptr %5, align 16
  %9 = getelementptr inbounds nuw i8, ptr %5, i64 1
  store i8 0, ptr %9, align 1
  %10 = getelementptr inbounds nuw i8, ptr %5, i64 2
  store i8 1, ptr %10, align 2
  %11 = getelementptr inbounds nuw i8, ptr %5, i64 3
  store i8 1, ptr %11, align 1
  %12 = getelementptr inbounds nuw i8, ptr %5, i64 4
  %.not = icmp eq ptr %2, null
  call void @llvm.memset.p0.i64(ptr noundef nonnull align 4 dereferenceable(28) %12, i8 0, i64 28, i1 false)
  %13 = getelementptr inbounds nuw i8, ptr %5, i64 32
  br i1 %.not, label %15, label %14

14:                                               ; preds = %8
  call void @llvm.memcpy.p0.p0.i64(ptr noundef nonnull align 16 dereferenceable(16) %13, ptr noundef nonnull readonly align 1 dereferenceable(16) %2, i64 noundef 16, i1 noundef false) #8
  br label %16

15:                                               ; preds = %8
  call void @llvm.memset.p0.i64(ptr noundef nonnull align 16 dereferenceable(16) %13, i8 noundef 0, i64 noundef 16, i1 noundef false) #8
  br label %16

16:                                               ; preds = %15, %14
  %.not11 = icmp eq ptr %3, null
  %17 = getelementptr inbounds nuw i8, ptr %5, i64 48
  br i1 %.not11, label %19, label %18

18:                                               ; preds = %16
  call void @llvm.memcpy.p0.p0.i64(ptr noundef nonnull align 16 dereferenceable(16) %17, ptr noundef nonnull readonly align 1 dereferenceable(16) %3, i64 noundef 16, i1 noundef false) #8
  br label %20

19:                                               ; preds = %16
  call void @llvm.memset.p0.i64(ptr noundef nonnull align 16 dereferenceable(16) %17, i8 noundef 0, i64 noundef 16, i1 noundef false) #8
  br label %20

20:                                               ; preds = %19, %18
  tail call void @llvm.memcpy.p0.p0.i64(ptr noundef nonnull align 1 dereferenceable(64) %0, ptr noundef nonnull align 16 dereferenceable(64) @blake2b_IV, i64 64, i1 false)
  %21 = getelementptr inbounds nuw i8, ptr %0, i64 64
  tail call void @llvm.memset.p0.i64(ptr noundef nonnull align 1 dereferenceable(297) %21, i8 noundef 0, i64 noundef 297, i1 noundef false) #8
  br label %22

22:                                               ; preds = %22, %20
  %.07.i = phi i64 [ 0, %20 ], [ %29, %22 ]
  %23 = shl nuw nsw i64 %.07.i, 3
  %24 = getelementptr i8, ptr %5, i64 %23
  %25 = load i64, ptr %24, align 8
  %26 = getelementptr [8 x i64], ptr %0, i64 0, i64 %.07.i
  %27 = load i64, ptr %26, align 1
  %28 = xor i64 %27, %25
  store i64 %28, ptr %26, align 1
  %29 = add nuw nsw i64 %.07.i, 1
  %exitcond.not.i = icmp eq i64 %29, 8
  br i1 %exitcond.not.i, label %_sodium_blake2b_init_param.exit, label %22, !llvm.loop !4

_sodium_blake2b_init_param.exit:                  ; preds = %22
  call void @llvm.lifetime.end.p0(i64 64, ptr nonnull %5) #8
  ret i32 0
}